target datalayout = "e-m:e-p270:32:32-p271:32:32-p272:64:64-i64:64-i128:128-f80:128-n8:16:32:64-S128"
target triple = "x86_64-pc-linux-gnu"

%"class.sls::bv_eval" = type <{ ptr, ptr, ptr, %"class.sls::bv_lookahead", %class.bv_util, %"class.sls::bv_fixed", [8 x i8], %class.ptr_vector, %class.random_gen, %"struct.sls::bv_eval::config", %class.svector.7, i32, i32, %class.svector.9, %class.svector.11, %class.scoped_ptr_vector, %"class.sls::bvect", %"class.sls::bvect", %"class.sls::bvect", %"class.sls::bvect", %"class.sls::bvect", %"class.sls::bvect", %"class.sls::bvect", %"class.sls::bvect", %"class.sls::bvect", %"class.sls::bvect", %"class.sls::bvect", %"class.sls::bvect", %"class.sls::bvect", i8, [7 x i8] }>
%"class.sls::bv_lookahead" = type { %class.bv_util, ptr, ptr, ptr, %"struct.sls::bv_lookahead::config", %"struct.sls::bv_lookahead::stats", %"class.sls::bvect", %"class.sls::bvect", %class.ptr_vector, %class.svector.1, %class.vector.3, %class.obj_mark, double, double, %"class.sls::bvect", ptr, ptr, %class.ptr_vector, %class.vector.4, %class.obj_mark, i32, %class.tracked_uint_set, i32, i32 }
%"struct.sls::bv_lookahead::config" = type <{ i8, [7 x i8], double, i32, i32, i8, i8, i8, i8, i32, i32, i32, i32, i8, [3 x i8], i32, i32, i32, i8, [3 x i8], double, double, i8, [7 x i8], double, i8, i8, i8, [5 x i8] }>
%"struct.sls::bv_lookahead::stats" = type { i32, i32, i32, i32, i32, i32 }
%class.svector.1 = type { %class.vector.2 }
%class.vector.2 = type { ptr }
%class.vector.3 = type { ptr }
%class.vector.4 = type { ptr }
%class.obj_mark = type { [8 x i8], %class.bit_vector }
%class.bit_vector = type { i32, i32, ptr }
%class.tracked_uint_set = type { %class.svector.5, %class.svector }
%class.svector.5 = type { %class.vector.6 }
%class.vector.6 = type { ptr }
%class.svector = type { %class.vector }
%class.vector = type { ptr }
%class.bv_util = type { %class.bv_recognizers, ptr, ptr }
%class.bv_recognizers = type { i32 }
%"class.sls::bv_fixed" = type { ptr, ptr, ptr, ptr, ptr }
%class.ptr_vector = type { %class.vector.0 }
%class.vector.0 = type { ptr }
%class.random_gen = type { i32 }
%"struct.sls::bv_eval::config" = type { i32 }
%class.svector.7 = type { %class.vector.8 }
%class.vector.8 = type { ptr }
%class.svector.9 = type { %class.vector.10 }
%class.vector.10 = type { ptr }
%class.svector.11 = type { %class.vector.12 }
%class.vector.12 = type { ptr }
%class.scoped_ptr_vector = type { %class.ptr_vector.13 }
%class.ptr_vector.13 = type { %class.vector.14 }
%class.vector.14 = type { ptr }
%"class.sls::bvect" = type <{ %class.svector, i32, i32, i32, [4 x i8] }>
%"class.sls::bv_valuation" = type { %"class.sls::bvect", %"class.sls::bvect", %"class.sls::bvect", %"class.sls::bvect", %"class.sls::bvect", %"class.sls::bvect", i32, i32, i32, i32, %"class.sls::bvect" }

; Function Attrs: mustprogress nounwind uwtable
define linkonce_odr hidden noundef nonnull align 4 dereferenceable(4) ptr @_ZNK6vectorIjLb0EjEixEj(ptr noundef nonnull align 8 dereferenceable(8) %0, i32 noundef %1) #5 comdat align 2 {
  %3 = alloca ptr, align 8
  %4 = alloca i32, align 4
  store ptr %0, ptr %3, align 8, !tbaa !149
  store i32 %1, ptr %4, align 4, !tbaa !97
  %5 = load ptr, ptr %3, align 8
  %6 = getelementptr inbounds nuw %class.vector, ptr %5, i32 0, i32 0
  %7 = load ptr, ptr %6, align 8, !tbaa !151
  %8 = load i32, ptr %4, align 4, !tbaa !97
  %9 = zext i32 %8 to i64
  %10 = getelementptr inbounds nuw i32, ptr %7, i64 %9
  ret ptr %10
}

; Function Attrs: mustprogress nounwind uwtable
define linkonce_odr hidden noundef nonnull align 4 dereferenceable(4) ptr @_ZN6vectorIjLb0EjEixEj(ptr noundef nonnull align 8 dereferenceable(8) %0, i32 noundef %1) #5 comdat align 2 {
  %3 = alloca ptr, align 8
  %4 = alloca i32, align 4
  store ptr %0, ptr %3, align 8, !tbaa !149
  store i32 %1, ptr %4, align 4, !tbaa !97
  %5 = load ptr, ptr %3, align 8
  %6 = getelementptr inbounds nuw %class.vector, ptr %5, i32 0, i32 0
  %7 = load ptr, ptr %6, align 8, !tbaa !151
  %8 = load i32, ptr %4, align 4, !tbaa !97
  %9 = zext i32 %8 to i64
  %10 = getelementptr inbounds nuw i32, ptr %7, i64 %9
  ret ptr %10
}

; Function Attrs: mustprogress uwtable
define linkonce_odr hidden noundef i32 @_ZNK3sls12bv_valuation4bitsEj(ptr noundef nonnull align 8 dereferenceable(184) %0, i32 noundef %1) #4 comdat align 2 {
  %3 = alloca ptr, align 8
  %4 = alloca i32, align 4
  store ptr %0, ptr %3, align 8, !tbaa !122
  store i32 %1, ptr %4, align 4, !tbaa !97
  %5 = load ptr, ptr %3, align 8
  %6 = getelementptr inbounds nuw %"class.sls::bv_valuation", ptr %5, i32 0, i32 0
  %7 = load i32, ptr %4, align 4, !tbaa !97
  %8 = call noundef nonnull align 4 dereferenceable(4) ptr @_ZNK6vectorIjLb0EjEixEj(ptr noundef nonnull align 8 dereferenceable(8) %6, i32 noundef %7)
  %9 = load i32, ptr %8, align 4, !tbaa !97
  ret i32 %9
}

; Function Attrs: mustprogress uwtable
define linkonce_odr hidden noundef i32 @_ZNK3sls12bv_valuation5fixedEj(ptr noundef nonnull align 8 dereferenceable(184) %0, i32 noundef %1) #4 comdat align 2 {
  %3 = alloca ptr, align 8
  %4 = alloca i32, align 4
  store ptr %0, ptr %3, align 8, !tbaa !122
  store i32 %1, ptr %4, align 4, !tbaa !97
  %5 = load ptr, ptr %3, align 8
  %6 = getelementptr inbounds nuw %"class.sls::bv_valuation", ptr %5, i32 0, i32 3
  %7 = load i32, ptr %4, align 4, !tbaa !97
  %8 = call noundef nonnull align 4 dereferenceable(4) ptr @_ZNK6vectorIjLb0EjEixEj(ptr noundef nonnull align 8 dereferenceable(8) %6, i32 noundef %7)
  %9 = load i32, ptr %8, align 4, !tbaa !97
  ret i32 %9
}

; Function Attrs: mustprogress uwtable
define linkonce_odr hidden void @_ZNK3sls12bv_valuation3setERNS_5bvectERKS1_(ptr noundef nonnull align 8 dereferenceable(184) %0, ptr noundef nonnull align 8 dereferenceable(20) %1, ptr noundef nonnull align 8 dereferenceable(20) %2) #4 comdat align 2 {
  %4 = alloca ptr, align 8
  %5 = alloca ptr, align 8
  %6 = alloca ptr, align 8
  %7 = alloca i32, align 4
  store ptr %0, ptr %4, align 8, !tbaa !122
  store ptr %1, ptr %5, align 8, !tbaa !110
  store ptr %2, ptr %6, align 8, !tbaa !110
  %8 = load ptr, ptr %4, align 8
  call void @llvm.lifetime.start.p0(i64 4, ptr %7) #3
  store i32 0, ptr %7, align 4, !tbaa !97
  br label %9

9:                                                ; preds = %23, %3
  %10 = load i32, ptr %7, align 4, !tbaa !97
  %11 = getelementptr inbounds nuw %"class.sls::bv_valuation", ptr %8, i32 0, i32 9
  %12 = load i32, ptr %11, align 4, !tbaa !128
  %13 = icmp ult i32 %10, %12
  br i1 %13, label %15, label %14

14:                                               ; preds = %9
  call void @llvm.lifetime.end.p0(i64 4, ptr %7) #3
  br label %26

15:                                               ; preds = %9
  %16 = load ptr, ptr %6, align 8, !tbaa !110
  %17 = load i32, ptr %7, align 4, !tbaa !97
  %18 = call noundef nonnull align 4 dereferenceable(4) ptr @_ZNK6vectorIjLb0EjEixEj(ptr noundef nonnull align 8 dereferenceable(8) %16, i32 noundef %17)
  %19 = load i32, ptr %18, align 4, !tbaa !97
  %20 = load ptr, ptr %5, align 8, !tbaa !110
  %21 = load i32, ptr %7, align 4, !tbaa !97
  %22 = call noundef nonnull align 4 dereferenceable(4) ptr @_ZN6vectorIjLb0EjEixEj(ptr noundef nonnull align 8 dereferenceable(8) %20, i32 noundef %21)
  store i32 %19, ptr %22, align 4, !tbaa !97
  br label %23

23:                                               ; preds = %15
  %24 = load i32, ptr %7, align 4, !tbaa !97
  %25 = add i32 %24, 1
  store i32 %25, ptr %7, align 4, !tbaa !97
  br label %9, !llvm.loop !235

26:                                               ; preds = %14
  ret void
}

; Function Attrs: mustprogress uwtable
define hidden noundef zeroext i1 @_ZN3sls7bv_eval21mul_overflow_on_fixedERKNS_12bv_valuationERKNS_5bvectE(ptr noundef nonnull align 8 dereferenceable(865) %0, ptr noundef nonnull align 8 dereferenceable(184) %1, ptr noundef nonnull align 8 dereferenceable(20) %2) #4 align 2 {
  %4 = alloca ptr, align 8
  %5 = alloca ptr, align 8
  %6 = alloca ptr, align 8
  %7 = alloca i32, align 4
  store ptr %0, ptr %4, align 8, !tbaa !3
  store ptr %1, ptr %5, align 8, !tbaa !122
  store ptr %2, ptr %6, align 8, !tbaa !110
  %8 = load ptr, ptr %4, align 8
  %9 = load ptr, ptr %5, align 8, !tbaa !122
  %10 = getelementptr inbounds nuw %"class.sls::bv_eval", ptr %8, i32 0, i32 18
  %11 = getelementptr inbounds nuw %"class.sls::bv_eval", ptr %8, i32 0, i32 21
  call void @_ZNK3sls12bv_valuation3setERNS_5bvectERKS1_(ptr noundef nonnull align 8 dereferenceable(184) %9, ptr noundef nonnull align 8 dereferenceable(20) %10, ptr noundef nonnull align 8 dereferenceable(20) %11)
  call void @llvm.lifetime.start.p0(i64 4, ptr %7) #3
  store i32 0, ptr %7, align 4, !tbaa !97
  br label %12

12:                                               ; preds = %30, %3
  %13 = load i32, ptr %7, align 4, !tbaa !97
  %14 = load ptr, ptr %5, align 8, !tbaa !122
  %15 = getelementptr inbounds nuw %"class.sls::bv_valuation", ptr %14, i32 0, i32 9
  %16 = load i32, ptr %15, align 4, !tbaa !128
  %17 = icmp ult i32 %13, %16
  br i1 %17, label %19, label %18

18:                                               ; preds = %12
  call void @llvm.lifetime.end.p0(i64 4, ptr %7) #3
  br label %33

19:                                               ; preds = %12
  %20 = load ptr, ptr %5, align 8, !tbaa !122
  %21 = load i32, ptr %7, align 4, !tbaa !97
  %22 = call noundef i32 @_ZNK3sls12bv_valuation5fixedEj(ptr noundef nonnull align 8 dereferenceable(184) %20, i32 noundef %21)
  %23 = load ptr, ptr %5, align 8, !tbaa !122
  %24 = load i32, ptr %7, align 4, !tbaa !97
  %25 = call noundef i32 @_ZNK3sls12bv_valuation4bitsEj(ptr noundef nonnull align 8 dereferenceable(184) %23, i32 noundef %24)
  %26 = and i32 %22, %25
  %27 = getelementptr inbounds nuw %"class.sls::bv_eval", ptr %8, i32 0, i32 18
  %28 = load i32, ptr %7, align 4, !tbaa !97
  %29 = call noundef nonnull align 4 dereferenceable(4) ptr @_ZN6vectorIjLb0EjEixEj(ptr noundef nonnull align 8 dereferenceable(8) %27, i32 noundef %28)
  store i32 %26, ptr %29, align 4, !tbaa !97
  br label %30

30:                                               ; preds = %19
  %31 = load i32, ptr %7, align 4, !tbaa !97
  %32 = add i32 %31, 1
  store i32 %32, ptr %7, align 4, !tbaa !97
  br label %12, !llvm.loop !317

33:                                               ; preds = %18
  %34 = load ptr, ptr %5, align 8, !tbaa !122
  %35 = getelementptr inbounds nuw %"class.sls::bv_eval", ptr %8, i32 0, i32 19
  %36 = getelementptr inbounds nuw %"class.sls::bv_eval", ptr %8, i32 0, i32 18
  %37 = load ptr, ptr %6, align 8, !tbaa !110
  %38 = call noundef zeroext i1 @_ZNK3sls12bv_valuation7set_mulERNS_5bvectERKS1_S4_b(ptr noundef nonnull align 8 dereferenceable(184) %34, ptr noundef nonnull align 8 dereferenceable(20) %35, ptr noundef nonnull align 8 dereferenceable(20) %36, ptr noundef nonnull align 8 dereferenceable(20) %37, i1 noundef zeroext true)
  ret i1 %38
}