; Function Attrs: mustprogress uwtable
define hidden noundef zeroext i1 @_ZN3sls7bv_eval21mul_overflow_on_fixedERKNS_12bv_valuationERKNS_5bvectE(ptr noundef nonnull align 8 dereferenceable(865) %0, ptr noundef nonnull align 8 dereferenceable(184) %1, ptr noundef nonnull align 8 dereferenceable(20) %2) local_unnamed_addr #3 align 2 {
  %4 = getelementptr inbounds nuw i8, ptr %0, i64 600
  %5 = getelementptr inbounds nuw i8, ptr %1, i64 156
  %6 = load i32, ptr %5, align 4, !tbaa !131
  %.not.i = icmp eq i32 %6, 0
  br i1 %.not.i, label %._crit_edge, label %.lr.ph.i

.lr.ph.i:                                         ; preds = %3
  %7 = getelementptr inbounds nuw i8, ptr %0, i64 672
  %8 = load ptr, ptr %7, align 8, !tbaa !97
  %9 = load ptr, ptr %4, align 8, !tbaa !97
  br label %10

10:                                               ; preds = %10, %.lr.ph.i
  %indvars.iv.i = phi i64 [ 0, %.lr.ph.i ], [ %indvars.iv.next.i, %10 ]
  %11 = getelementptr inbounds nuw i32, ptr %8, i64 %indvars.iv.i
  %12 = load i32, ptr %11, align 4, !tbaa !102
  %13 = getelementptr inbounds nuw i32, ptr %9, i64 %indvars.iv.i
  store i32 %12, ptr %13, align 4, !tbaa !102
  %indvars.iv.next.i = add nuw nsw i64 %indvars.iv.i, 1
  %14 = load i32, ptr %5, align 4, !tbaa !131
  %15 = zext i32 %14 to i64
  %16 = icmp samesign ult i64 %indvars.iv.next.i, %15
  br i1 %16, label %10, label %_ZNK3sls12bv_valuation3setERNS_5bvectERKS1_.exit, !llvm.loop !206

_ZNK3sls12bv_valuation3setERNS_5bvectERKS1_.exit: ; preds = %10
  %17 = icmp eq i32 %14, 0
  br i1 %17, label %._crit_edge, label %.lr.ph

.lr.ph:                                           ; preds = %_ZNK3sls12bv_valuation3setERNS_5bvectERKS1_.exit
  %18 = getelementptr inbounds nuw i8, ptr %1, i64 72
  %19 = load ptr, ptr %18, align 8, !tbaa !97
  %20 = load ptr, ptr %1, align 8, !tbaa !97
  %21 = load ptr, ptr %4, align 8, !tbaa !97
  br label %24

._crit_edge:                                      ; preds = %24, %3, %_ZNK3sls12bv_valuation3setERNS_5bvectERKS1_.exit
  %22 = getelementptr inbounds nuw i8, ptr %0, i64 624
  %23 = tail call noundef zeroext i1 @_ZNK3sls12bv_valuation7set_mulERNS_5bvectERKS1_S4_b(ptr noundef nonnull align 8 dereferenceable(184) %1, ptr noundef nonnull align 8 dereferenceable(20) %22, ptr noundef nonnull align 8 dereferenceable(20) %4, ptr noundef nonnull align 8 dereferenceable(20) %2, i1 noundef zeroext true)
  ret i1 %23

24:                                               ; preds = %.lr.ph, %24
  %indvars.iv = phi i64 [ 0, %.lr.ph ], [ %indvars.iv.next, %24 ]
  %25 = getelementptr inbounds nuw i32, ptr %19, i64 %indvars.iv
  %26 = load i32, ptr %25, align 4, !tbaa !102
  %27 = getelementptr inbounds nuw i32, ptr %20, i64 %indvars.iv
  %28 = load i32, ptr %27, align 4, !tbaa !102
  %29 = and i32 %28, %26
  %30 = getelementptr inbounds nuw i32, ptr %21, i64 %indvars.iv
  store i32 %29, ptr %30, align 4, !tbaa !102
  %indvars.iv.next = add nuw nsw i64 %indvars.iv, 1
  %31 = load i32, ptr %5, align 4, !tbaa !131
  %32 = zext i32 %31 to i64
  %33 = icmp samesign ult i64 %indvars.iv.next, %32
  br i1 %33, label %24, label %._crit_edge, !llvm.loop !251
}